target datalayout = "e-m:e-p270:32:32-p271:32:32-p272:64:64-i64:64-i128:128-f80:128-n8:16:32:64-S128"
target triple = "x86_64-pc-linux-gnu"

%struct.gmx_sparsematrix = type { i8, i32, ptr, ptr, ptr }
%struct.gmx_sparsematrix_entry = type { i32, float }

; Function Attrs: mustprogress nounwind uwtable
define noundef float @_Z22gmx_sparsematrix_valueP16gmx_sparsematrixii(ptr noundef %0, i32 noundef %1, i32 noundef %2) #3 {
  %4 = alloca ptr, align 8
  %5 = alloca i32, align 4
  %6 = alloca i32, align 4
  %7 = alloca i8, align 1
  %8 = alloca i32, align 4
  %9 = alloca float, align 4
  store ptr %0, ptr %4, align 8, !tbaa !7
  store i32 %1, ptr %5, align 4, !tbaa !3
  store i32 %2, ptr %6, align 4, !tbaa !3
  call void @llvm.lifetime.start.p0(i64 1, ptr %7) #7
  store i8 0, ptr %7, align 1, !tbaa !48
  call void @llvm.lifetime.start.p0(i64 4, ptr %8) #7
  call void @llvm.lifetime.start.p0(i64 4, ptr %9) #7
  store float 0.000000e+00, ptr %9, align 4, !tbaa !49
  store i32 0, ptr %8, align 4, !tbaa !3
  br label %10

10:                                               ; preds = %56, %3
  %11 = load i32, ptr %8, align 4, !tbaa !3
  %12 = load ptr, ptr %4, align 8, !tbaa !7
  %13 = getelementptr inbounds nuw %struct.gmx_sparsematrix, ptr %12, i32 0, i32 2
  %14 = load ptr, ptr %13, align 8, !tbaa !16
  %15 = load i32, ptr %5, align 4, !tbaa !3
  %16 = sext i32 %15 to i64
  %17 = getelementptr inbounds i32, ptr %14, i64 %16
  %18 = load i32, ptr %17, align 4, !tbaa !3
  %19 = icmp slt i32 %11, %18
  br i1 %19, label %20, label %25

20:                                               ; preds = %10
  %21 = load i8, ptr %7, align 1, !tbaa !48, !range !50, !noundef !51
  %22 = trunc i8 %21 to i1
  %23 = zext i1 %22 to i32
  %24 = icmp eq i32 %23, 0
  br label %25

25:                                               ; preds = %20, %10
  %26 = phi i1 [ false, %10 ], [ %24, %20 ]
  br i1 %26, label %27, label %59

27:                                               ; preds = %25
  %28 = load ptr, ptr %4, align 8, !tbaa !7
  %29 = getelementptr inbounds nuw %struct.gmx_sparsematrix, ptr %28, i32 0, i32 4
  %30 = load ptr, ptr %29, align 8, !tbaa !18
  %31 = load i32, ptr %5, align 4, !tbaa !3
  %32 = sext i32 %31 to i64
  %33 = getelementptr inbounds ptr, ptr %30, i64 %32
  %34 = load ptr, ptr %33, align 8, !tbaa !19
  %35 = load i32, ptr %8, align 4, !tbaa !3
  %36 = sext i32 %35 to i64
  %37 = getelementptr inbounds %struct.gmx_sparsematrix_entry, ptr %34, i64 %36
  %38 = getelementptr inbounds nuw %struct.gmx_sparsematrix_entry, ptr %37, i32 0, i32 0
  %39 = load i32, ptr %38, align 4, !tbaa !40
  %40 = load i32, ptr %6, align 4, !tbaa !3
  %41 = icmp eq i32 %39, %40
  br i1 %41, label %42, label %55

42:                                               ; preds = %27
  store i8 1, ptr %7, align 1, !tbaa !48
  %43 = load ptr, ptr %4, align 8, !tbaa !7
  %44 = getelementptr inbounds nuw %struct.gmx_sparsematrix, ptr %43, i32 0, i32 4
  %45 = load ptr, ptr %44, align 8, !tbaa !18
  %46 = load i32, ptr %5, align 4, !tbaa !3
  %47 = sext i32 %46 to i64
  %48 = getelementptr inbounds ptr, ptr %45, i64 %47
  %49 = load ptr, ptr %48, align 8, !tbaa !19
  %50 = load i32, ptr %8, align 4, !tbaa !3
  %51 = sext i32 %50 to i64
  %52 = getelementptr inbounds %struct.gmx_sparsematrix_entry, ptr %49, i64 %51
  %53 = getelementptr inbounds nuw %struct.gmx_sparsematrix_entry, ptr %52, i32 0, i32 1
  %54 = load float, ptr %53, align 4, !tbaa !44
  store float %54, ptr %9, align 4, !tbaa !49
  br label %55

55:                                               ; preds = %42, %27
  br label %56

56:                                               ; preds = %55
  %57 = load i32, ptr %8, align 4, !tbaa !3
  %58 = add nsw i32 %57, 1
  store i32 %58, ptr %8, align 4, !tbaa !3
  br label %10, !llvm.loop !52

59:                                               ; preds = %25
  %60 = load float, ptr %9, align 4, !tbaa !49
  call void @llvm.lifetime.end.p0(i64 4, ptr %9) #7
  call void @llvm.lifetime.end.p0(i64 4, ptr %8) #7
  call void @llvm.lifetime.end.p0(i64 1, ptr %7) #7
  ret float %60
}