; Function Attrs: mustprogress nofree norecurse nosync nounwind willreturn memory(read, inaccessiblemem: none) uwtable
define noundef float @_Z22gmx_sparsematrix_valueP16gmx_sparsematrixii(ptr noundef readonly captures(none) %0, i32 noundef %1, i32 noundef %2) local_unnamed_addr #3 {
  %4 = getelementptr inbounds nuw i8, ptr %0, i64 8
  %5 = load ptr, ptr %4, align 8, !tbaa !15
  %6 = sext i32 %1 to i64
  %7 = getelementptr inbounds i32, ptr %5, i64 %6
  %8 = load i32, ptr %7, align 4, !tbaa !17
  %9 = icmp sgt i32 %8, 0
  br i1 %9, label %.lr.ph, label %._crit_edge

.lr.ph:                                           ; preds = %3
  %10 = getelementptr inbounds nuw i8, ptr %0, i64 24
  %11 = load ptr, ptr %10, align 8, !tbaa !22
  %12 = getelementptr inbounds ptr, ptr %11, i64 %6
  %13 = load ptr, ptr %12, align 8, !tbaa !18
  %14 = zext nneg i32 %8 to i64
  br label %15

15:                                               ; preds = %.lr.ph, %20
  %indvars.iv = phi i64 [ 0, %.lr.ph ], [ %indvars.iv.next, %20 ]
  %16 = getelementptr inbounds nuw %struct.gmx_sparsematrix_entry, ptr %13, i64 %indvars.iv
  %17 = load i32, ptr %16, align 4, !tbaa !25
  %.not = icmp eq i32 %17, %2
  br i1 %.not, label %.thread, label %20

.thread:                                          ; preds = %15
  %18 = getelementptr inbounds nuw %struct.gmx_sparsematrix_entry, ptr %13, i64 %indvars.iv, i32 1
  %19 = load float, ptr %18, align 4, !tbaa !29
  br label %._crit_edge

20:                                               ; preds = %15
  %indvars.iv.next = add nuw nsw i64 %indvars.iv, 1
  %21 = icmp samesign ult i64 %indvars.iv.next, %14
  br i1 %21, label %15, label %._crit_edge, !llvm.loop !33

._crit_edge:                                      ; preds = %20, %.thread, %3
  %.0.lcssa = phi float [ 0.000000e+00, %3 ], [ %19, %.thread ], [ 0.000000e+00, %20 ]
  ret float %.0.lcssa
}